target datalayout = "e-m:e-p270:32:32-p271:32:32-p272:64:64-i64:64-i128:128-f80:128-n8:16:32:64-S128"
target triple = "x86_64-pc-linux-gnu"

%"class.llvm::SmallVector" = type { %"class.llvm::SmallVectorImpl", %"struct.llvm::SmallVectorStorage" }
%"class.llvm::SmallVectorImpl" = type { %"class.llvm::SmallVectorTemplateBase" }
%"class.llvm::SmallVectorTemplateBase" = type { %"class.llvm::SmallVectorTemplateCommon" }
%"class.llvm::SmallVectorTemplateCommon" = type { %"class.llvm::SmallVectorBase" }
%"class.llvm::SmallVectorBase" = type { ptr, i32, i32 }
%"struct.llvm::SmallVectorStorage" = type { [96 x i8] }
%"class.clang::format::TokenAnalyzer" = type <{ %"class.clang::format::UnwrappedLineConsumer", %"struct.clang::format::FormatStyle", %"class.clang::LangOptions", ptr, %"class.clang::format::AffectedRangeManager", %"class.llvm::SmallVector.182", i32, [4 x i8] }>
%"class.clang::format::UnwrappedLineConsumer" = type { ptr }
%"struct.clang::format::FormatStyle" = type { i8, i32, i8, i8, %"struct.clang::format::FormatStyle::AlignConsecutiveStyle", %"struct.clang::format::FormatStyle::AlignConsecutiveStyle", %"struct.clang::format::FormatStyle::AlignConsecutiveStyle", %"struct.clang::format::FormatStyle::AlignConsecutiveStyle", %"struct.clang::format::FormatStyle::ShortCaseStatementsAlignmentStyle", %"struct.clang::format::FormatStyle::AlignConsecutiveStyle", %"struct.clang::format::FormatStyle::AlignConsecutiveStyle", %"struct.clang::format::FormatStyle::AlignConsecutiveStyle", i8, i8, %"struct.clang::format::FormatStyle::TrailingCommentsAlignmentStyle", i8, i8, i8, i8, i8, i8, i8, i8, i8, i8, i8, i8, i8, i8, %"class.std::vector.148", i8, i8, i8, i8, %"class.std::optional", %"struct.clang::format::FormatStyle::BraceWrappingFlags", i8, i8, i8, i8, i8, i8, i8, i8, i8, i8, i8, i8, i8, i8, i32, %"class.std::__cxx11::basic_string", i8, i8, i8, i32, i32, i8, i8, i8, i8, i8, i8, i8, %"class.std::vector.148", %"struct.clang::tooling::IncludeStyle", %"class.std::vector.148", i8, i8, i8, i8, i8, i8, i8, i32, i8, i8, i8, i8, %"struct.clang::format::FormatStyle::IntegerLiteralSeparatorStyle", %"class.std::vector.148", i8, i8, %"struct.clang::format::FormatStyle::KeepEmptyLinesStyle", i8, i8, i8, %"class.std::__cxx11::basic_string", %"class.std::__cxx11::basic_string", %"class.std::vector.148", i32, i8, %"class.std::vector.148", i8, i32, i8, %"class.std::vector.148", i8, i8, i8, i32, i32, i32, i32, i32, i32, i32, i32, i32, i32, i32, i8, i32, i8, %"class.std::vector.148", %"class.std::vector.158", i8, i8, i8, i8, i8, i8, i8, i8, i32, i8, i8, i8, i8, i8, i8, i8, i8, i8, i8, i8, i8, i8, i8, i8, %"struct.clang::format::FormatStyle::SpaceBeforeParensCustom", i8, i8, i8, i32, i8, i8, %"struct.clang::format::FormatStyle::SpacesInLineComment", i8, %"struct.clang::format::FormatStyle::SpacesInParensCustom", i8, i8, %"class.std::vector.148", %"class.std::vector.148", %"class.std::vector.148", i8, i32, %"class.std::vector.148", %"class.std::vector.148", i8, i8, %"class.std::vector.148", %"struct.clang::format::FormatStyle::FormatStyleSet" }
%"struct.clang::format::FormatStyle::ShortCaseStatementsAlignmentStyle" = type { i8, i8, i8, i8, i8 }
%"struct.clang::format::FormatStyle::AlignConsecutiveStyle" = type { i8, i8, i8, i8, i8, i8 }
%"struct.clang::format::FormatStyle::TrailingCommentsAlignmentStyle" = type { i8, i32 }
%"class.std::optional" = type { %"struct.std::_Optional_base" }
%"struct.std::_Optional_base" = type { %"struct.std::_Optional_payload" }
%"struct.std::_Optional_payload" = type { %"struct.std::_Optional_payload_base.base", [3 x i8] }
%"struct.std::_Optional_payload_base.base" = type <{ %"union.std::_Optional_payload_base<unsigned int>::_Storage", i8 }>
%"union.std::_Optional_payload_base<unsigned int>::_Storage" = type { i32 }
%"struct.clang::format::FormatStyle::BraceWrappingFlags" = type { i8, i8, i8, i8, i8, i8, i8, i8, i8, i8, i8, i8, i8, i8, i8, i8, i8, i8 }
%"struct.clang::tooling::IncludeStyle" = type <{ i32, [4 x i8], %"class.std::vector.153", %"class.std::__cxx11::basic_string", %"class.std::__cxx11::basic_string", i8, [7 x i8] }>
%"class.std::vector.153" = type { %"struct.std::_Vector_base.154" }
%"struct.std::_Vector_base.154" = type { %"struct.std::_Vector_base<clang::tooling::IncludeStyle::IncludeCategory, std::allocator<clang::tooling::IncludeStyle::IncludeCategory>>::_Vector_impl" }
%"struct.std::_Vector_base<clang::tooling::IncludeStyle::IncludeCategory, std::allocator<clang::tooling::IncludeStyle::IncludeCategory>>::_Vector_impl" = type { %"struct.std::_Vector_base<clang::tooling::IncludeStyle::IncludeCategory, std::allocator<clang::tooling::IncludeStyle::IncludeCategory>>::_Vector_impl_data" }
%"struct.std::_Vector_base<clang::tooling::IncludeStyle::IncludeCategory, std::allocator<clang::tooling::IncludeStyle::IncludeCategory>>::_Vector_impl_data" = type { ptr, ptr, ptr }
%"struct.clang::format::FormatStyle::IntegerLiteralSeparatorStyle" = type { i8, i8, i8, i8, i8, i8 }
%"struct.clang::format::FormatStyle::KeepEmptyLinesStyle" = type { i8, i8, i8 }
%"class.std::__cxx11::basic_string" = type { %"struct.std::__cxx11::basic_string<char>::_Alloc_hider", i64, %union.anon }
%"struct.std::__cxx11::basic_string<char>::_Alloc_hider" = type { ptr }
%union.anon = type { i64, [8 x i8] }
%"class.std::vector.158" = type { %"struct.std::_Vector_base.159" }
%"struct.std::_Vector_base.159" = type { %"struct.std::_Vector_base<clang::format::FormatStyle::RawStringFormat, std::allocator<clang::format::FormatStyle::RawStringFormat>>::_Vector_impl" }
%"struct.std::_Vector_base<clang::format::FormatStyle::RawStringFormat, std::allocator<clang::format::FormatStyle::RawStringFormat>>::_Vector_impl" = type { %"struct.std::_Vector_base<clang::format::FormatStyle::RawStringFormat, std::allocator<clang::format::FormatStyle::RawStringFormat>>::_Vector_impl_data" }
%"struct.std::_Vector_base<clang::format::FormatStyle::RawStringFormat, std::allocator<clang::format::FormatStyle::RawStringFormat>>::_Vector_impl_data" = type { ptr, ptr, ptr }
%"struct.clang::format::FormatStyle::SpaceBeforeParensCustom" = type { i8, i8, i8, i8, i8, i8, i8, i8, i8, i8 }
%"struct.clang::format::FormatStyle::SpacesInLineComment" = type { i32, i32 }
%"struct.clang::format::FormatStyle::SpacesInParensCustom" = type { i8, i8, i8, i8, i8 }
%"class.std::vector.148" = type { %"struct.std::_Vector_base.149" }
%"struct.std::_Vector_base.149" = type { %"struct.std::_Vector_base<std::__cxx11::basic_string<char>, std::allocator<std::__cxx11::basic_string<char>>>::_Vector_impl" }
%"struct.std::_Vector_base<std::__cxx11::basic_string<char>, std::allocator<std::__cxx11::basic_string<char>>>::_Vector_impl" = type { %"struct.std::_Vector_base<std::__cxx11::basic_string<char>, std::allocator<std::__cxx11::basic_string<char>>>::_Vector_impl_data" }
%"struct.std::_Vector_base<std::__cxx11::basic_string<char>, std::allocator<std::__cxx11::basic_string<char>>>::_Vector_impl_data" = type { ptr, ptr, ptr }
%"struct.clang::format::FormatStyle::FormatStyleSet" = type { %"class.std::shared_ptr" }
%"class.std::shared_ptr" = type { %"class.std::__shared_ptr" }
%"class.std::__shared_ptr" = type { ptr, %"class.std::__shared_count" }
%"class.std::__shared_count" = type { ptr }
%"class.clang::LangOptions" = type <{ %"class.clang::LangOptionsBase.base", [2 x i8], i32, %"struct.clang::SanitizerSet", i8, [7 x i8], %"class.std::vector.148", %"class.std::vector.148", %"class.std::vector.148", %"class.std::vector.148", %"class.std::vector.148", %"class.clang::ObjCRuntime", i32, %"class.std::__cxx11::basic_string", %"class.std::__cxx11::basic_string", %"class.std::__cxx11::basic_string", %"class.std::__cxx11::basic_string", %"class.std::vector.148", %"struct.clang::CommentOptions", %"class.std::vector.148", %"class.std::map.163", %"class.std::vector.169", %"class.std::__cxx11::basic_string", %"class.std::__cxx11::basic_string", %"class.std::optional.174", i8, [3 x i8], i32, i32, [4 x i8], %"class.std::vector.148", %"class.std::__cxx11::basic_string", i8, i8, [6 x i8], %"class.std::__cxx11::basic_string", i8, [7 x i8] }>
%"class.clang::LangOptionsBase.base" = type <{ i64, i64, i64, i64, i64, i64, i64, i64, i64, i64, i64, i64, i64, i64, i64, i64, i64, i64, i64, i64, i64, i64, i64, i64, i64, i16 }>
%"struct.clang::SanitizerSet" = type { %"class.clang::SanitizerMask" }
%"class.clang::SanitizerMask" = type { [2 x i64] }
%"class.clang::ObjCRuntime" = type <{ i32, %"class.llvm::VersionTuple" }>
%"class.llvm::VersionTuple" = type { i64, i64 }
%"struct.clang::CommentOptions" = type <{ %"class.std::vector.148", i8, [7 x i8] }>
%"class.std::map.163" = type { %"class.std::_Rb_tree.164" }
%"class.std::_Rb_tree.164" = type { %"struct.std::_Rb_tree<std::__cxx11::basic_string<char>, std::pair<const std::__cxx11::basic_string<char>, std::__cxx11::basic_string<char>>, std::_Select1st<std::pair<const std::__cxx11::basic_string<char>, std::__cxx11::basic_string<char>>>, std::greater<std::__cxx11::basic_string<char>>>::_Rb_tree_impl" }
%"struct.std::_Rb_tree<std::__cxx11::basic_string<char>, std::pair<const std::__cxx11::basic_string<char>, std::__cxx11::basic_string<char>>, std::_Select1st<std::pair<const std::__cxx11::basic_string<char>, std::__cxx11::basic_string<char>>>, std::greater<std::__cxx11::basic_string<char>>>::_Rb_tree_impl" = type { [8 x i8], %"struct.std::_Rb_tree_header" }
%"struct.std::_Rb_tree_header" = type { %"struct.std::_Rb_tree_node_base", i64 }
%"struct.std::_Rb_tree_node_base" = type { i32, ptr, ptr, ptr }
%"class.std::vector.169" = type { %"struct.std::_Vector_base.170" }
%"struct.std::_Vector_base.170" = type { %"struct.std::_Vector_base<llvm::Triple, std::allocator<llvm::Triple>>::_Vector_impl" }
%"struct.std::_Vector_base<llvm::Triple, std::allocator<llvm::Triple>>::_Vector_impl" = type { %"struct.std::_Vector_base<llvm::Triple, std::allocator<llvm::Triple>>::_Vector_impl_data" }
%"struct.std::_Vector_base<llvm::Triple, std::allocator<llvm::Triple>>::_Vector_impl_data" = type { ptr, ptr, ptr }
%"class.std::optional.174" = type { %"struct.std::_Optional_base.175" }
%"struct.std::_Optional_base.175" = type { %"struct.std::_Optional_payload.177" }
%"struct.std::_Optional_payload.177" = type { %"struct.std::_Optional_payload_base.base.179", [3 x i8] }
%"struct.std::_Optional_payload_base.base.179" = type <{ %"union.std::_Optional_payload_base<clang::TargetCXXABI::Kind>::_Storage", i8 }>
%"union.std::_Optional_payload_base<clang::TargetCXXABI::Kind>::_Storage" = type { i32 }
%"class.clang::format::AffectedRangeManager" = type { ptr, %"class.llvm::SmallVector" }
%"class.llvm::SmallVector.182" = type { %"class.llvm::SmallVectorImpl.183", %"struct.llvm::SmallVectorStorage.186" }
%"class.llvm::SmallVectorImpl.183" = type { %"class.llvm::SmallVectorTemplateBase.184" }
%"class.llvm::SmallVectorTemplateBase.184" = type { %"class.llvm::SmallVectorTemplateCommon.185" }
%"class.llvm::SmallVectorTemplateCommon.185" = type { %"class.llvm::SmallVectorBase" }
%"struct.llvm::SmallVectorStorage.186" = type { [2336 x i8] }
%"class.llvm::SmallVectorImpl.233" = type { %"class.llvm::SmallVectorTemplateBase.234" }
%"class.llvm::SmallVectorTemplateBase.234" = type { %"class.llvm::SmallVectorTemplateCommon.235" }
%"class.llvm::SmallVectorTemplateCommon.235" = type { %"class.llvm::SmallVectorBase" }
%"class.llvm::SmallVector.312" = type { %"class.llvm::SmallVectorImpl.233", %"struct.llvm::SmallVectorStorage.313" }
%"struct.llvm::SmallVectorStorage.313" = type { [1152 x i8] }

; Function Attrs: mustprogress nounwind uwtable
define linkonce_odr hidden noundef ptr @_ZN4llvm25SmallVectorTemplateCommonINS_11SmallVectorIN5clang6format13UnwrappedLineELj16EEEvE5beginEv(ptr noundef nonnull align 8 dereferenceable(16) %0) #0 comdat align 2 {
  %2 = alloca ptr, align 8
  store ptr %0, ptr %2, align 8
  %3 = load ptr, ptr %2, align 8
  %4 = getelementptr inbounds nuw %"class.llvm::SmallVectorBase", ptr %3, i32 0, i32 0
  %5 = load ptr, ptr %4, align 8
  ret ptr %5
}

; Function Attrs: mustprogress nounwind uwtable
define linkonce_odr hidden noundef ptr @_ZN4llvm25SmallVectorTemplateCommonINS_11SmallVectorIN5clang6format13UnwrappedLineELj16EEEvE3endEv(ptr noundef nonnull align 8 dereferenceable(16) %0) #0 comdat align 2 {
  %2 = alloca ptr, align 8
  store ptr %0, ptr %2, align 8
  %3 = load ptr, ptr %2, align 8
  %4 = call noundef ptr @_ZN4llvm25SmallVectorTemplateCommonINS_11SmallVectorIN5clang6format13UnwrappedLineELj16EEEvE5beginEv(ptr noundef nonnull align 8 dereferenceable(16) %3)
  %5 = call noundef i64 @_ZNK4llvm15SmallVectorBaseIjE4sizeEv(ptr noundef nonnull align 8 dereferenceable(16) %3)
  %6 = getelementptr inbounds %"class.llvm::SmallVector.312", ptr %4, i64 %5
  ret ptr %6
}

; Function Attrs: mustprogress nounwind uwtable
define linkonce_odr hidden noundef nonnull align 8 dereferenceable(1168) ptr @_ZN4llvm25SmallVectorTemplateCommonINS_11SmallVectorIN5clang6format13UnwrappedLineELj16EEEvE4backEv(ptr noundef nonnull align 8 dereferenceable(16) %0) #0 comdat align 2 {
  %2 = alloca ptr, align 8
  store ptr %0, ptr %2, align 8
  %3 = load ptr, ptr %2, align 8
  %4 = call noundef ptr @_ZN4llvm25SmallVectorTemplateCommonINS_11SmallVectorIN5clang6format13UnwrappedLineELj16EEEvE3endEv(ptr noundef nonnull align 8 dereferenceable(16) %3)
  %5 = getelementptr inbounds %"class.llvm::SmallVector.312", ptr %4, i64 -1
  ret ptr %5
}

; Function Attrs: mustprogress nounwind uwtable
define dso_local void @_ZN5clang6format13TokenAnalyzer20consumeUnwrappedLineERKNS0_13UnwrappedLineE(ptr noundef nonnull align 8 dereferenceable(4276) %0, ptr noundef nonnull align 8 dereferenceable(68) %1) unnamed_addr #0 align 2 {
  %3 = alloca ptr, align 8
  %4 = alloca ptr, align 8
  store ptr %0, ptr %3, align 8
  store ptr %1, ptr %4, align 8
  %5 = load ptr, ptr %3, align 8
  %6 = getelementptr inbounds nuw %"class.clang::format::TokenAnalyzer", ptr %5, i32 0, i32 5
  %7 = call noundef nonnull align 8 dereferenceable(1168) ptr @_ZN4llvm25SmallVectorTemplateCommonINS_11SmallVectorIN5clang6format13UnwrappedLineELj16EEEvE4backEv(ptr noundef nonnull align 8 dereferenceable(16) %6)
  %8 = load ptr, ptr %4, align 8
  call void @_ZN4llvm23SmallVectorTemplateBaseIN5clang6format13UnwrappedLineELb0EE9push_backERKS3_(ptr noundef nonnull align 8 dereferenceable(16) %7, ptr noundef nonnull align 8 dereferenceable(68) %8)
  ret void
}