; Function Attrs: mustprogress nounwind uwtable
define dso_local void @_ZN5clang6format13TokenAnalyzer20consumeUnwrappedLineERKNS0_13UnwrappedLineE(ptr noundef nonnull align 8 dereferenceable(4276) %0, ptr noundef nonnull align 8 dereferenceable(68) %1) unnamed_addr #0 align 2 {
  %3 = getelementptr inbounds nuw i8, ptr %0, i64 1920
  %4 = load ptr, ptr %3, align 8
  %5 = tail call noundef i64 @_ZNK4llvm15SmallVectorBaseIjE4sizeEv(ptr noundef nonnull align 8 dereferenceable(16) %3) #14
  %6 = getelementptr inbounds %"class.llvm::SmallVector.312", ptr %4, i64 %5
  %7 = getelementptr inbounds i8, ptr %6, i64 -1168
  tail call void @_ZN4llvm23SmallVectorTemplateBaseIN5clang6format13UnwrappedLineELb0EE9push_backERKS3_(ptr noundef nonnull align 8 dereferenceable(16) %7, ptr noundef nonnull align 8 dereferenceable(68) %1)
  ret void
}